; Function Attrs: mustprogress uwtable
define internal fastcc void @_ZN9benchmark12_GLOBAL__N_18PrintImpIRA26_KcJRNSt7__cxx1112basic_stringIcSt11char_traitsIcESaIcEEERA6_S2_EEEvRSoOT_DpOT0_(ptr noundef nonnull readonly align 8 captures(none) dereferenceable(32) %0) unnamed_addr #3 {
  %2 = alloca i8, align 1
  %3 = tail call noundef nonnull align 8 dereferenceable(8) ptr @_ZSt16__ostream_insertIcSt11char_traitsIcEERSt13basic_ostreamIT_T0_ES6_PKS3_l(ptr noundef nonnull align 8 dereferenceable(8) @_ZSt4cerr, ptr noundef nonnull @.str.33, i64 noundef 25)
  %.val = load ptr, ptr %0, align 8, !tbaa !33
  %4 = getelementptr inbounds nuw i8, ptr %0, i64 8
  %.val5 = load i64, ptr %4, align 8, !tbaa !29
  %5 = tail call noundef nonnull align 8 dereferenceable(8) ptr @_ZSt16__ostream_insertIcSt11char_traitsIcEERSt13basic_ostreamIT_T0_ES6_PKS3_l(ptr noundef nonnull align 8 dereferenceable(8) @_ZSt4cerr, ptr noundef %.val, i64 noundef %.val5)
  %6 = tail call noundef nonnull align 8 dereferenceable(8) ptr @_ZSt16__ostream_insertIcSt11char_traitsIcEERSt13basic_ostreamIT_T0_ES6_PKS3_l(ptr noundef nonnull align 8 dereferenceable(8) @_ZSt4cerr, ptr noundef nonnull align 1 dereferenceable(6) @.str.34, i64 noundef 5)
  call void @llvm.lifetime.start.p0(i64 1, ptr nonnull %2)
  store i8 10, ptr %2, align 1, !tbaa !32
  %7 = load ptr, ptr @_ZSt4cerr, align 8, !tbaa !38
  %8 = getelementptr i8, ptr %7, i64 -24
  %9 = load i64, ptr %8, align 8
  %10 = getelementptr inbounds i8, ptr @_ZSt4cerr, i64 %9
  %11 = getelementptr inbounds nuw i8, ptr %10, i64 16
  %12 = load i64, ptr %11, align 8, !tbaa !115
  %.not.i.i.i.i = icmp eq i64 %12, 0
  br i1 %.not.i.i.i.i, label %15, label %13

13:                                               ; preds = %1
  %14 = call noundef nonnull align 8 dereferenceable(8) ptr @_ZSt16__ostream_insertIcSt11char_traitsIcEERSt13basic_ostreamIT_T0_ES6_PKS3_l(ptr noundef nonnull align 8 dereferenceable(8) @_ZSt4cerr, ptr noundef nonnull %2, i64 noundef 1)
  br label %_ZN9benchmark12_GLOBAL__N_18PrintImpIRNSt7__cxx1112basic_stringIcSt11char_traitsIcESaIcEEEJRA6_KcEEEvRSoOT_DpOT0_.exit

15:                                               ; preds = %1
  %16 = tail call noundef nonnull align 8 dereferenceable(8) ptr @_ZNSo3putEc(ptr noundef nonnull align 8 dereferenceable(8) @_ZSt4cerr, i8 noundef signext 10)
  br label %_ZN9benchmark12_GLOBAL__N_18PrintImpIRNSt7__cxx1112basic_stringIcSt11char_traitsIcESaIcEEEJRA6_KcEEEvRSoOT_DpOT0_.exit

_ZN9benchmark12_GLOBAL__N_18PrintImpIRNSt7__cxx1112basic_stringIcSt11char_traitsIcESaIcEEEJRA6_KcEEEvRSoOT_DpOT0_.exit: ; preds = %13, %15
  call void @llvm.lifetime.end.p0(i64 1, ptr nonnull %2)
  ret void
}